; Function Attrs: mustprogress uwtable
define void @_ZN5faiss6ivflib15search_centroidEPNS_5IndexEPKfiPl(ptr noundef %0, ptr noundef %1, i32 noundef %2, ptr noundef %3) local_unnamed_addr #3 personality ptr @__gxx_personality_v0 {
  %5 = icmp eq ptr %0, null
  br i1 %5, label %.thread, label %6

6:                                                ; preds = %4
  %7 = tail call ptr @__dynamic_cast(ptr nonnull %0, ptr nonnull @_ZTIN5faiss5IndexE, ptr nonnull @_ZTIN5faiss17IndexPreTransformE, i64 0) #16
  %.not = icmp eq ptr %7, null
  br i1 %.not, label %.thread, label %_ZNSt10unique_ptrIA_fSt14default_deleteIS0_EE5resetIPfvEEvT_.exit

_ZNSt10unique_ptrIA_fSt14default_deleteIS0_EE5resetIPfvEEvT_.exit: ; preds = %6
  %8 = sext i32 %2 to i64
  %9 = tail call noundef ptr @_ZNK5faiss17IndexPreTransform11apply_chainElPKf(ptr noundef nonnull align 8 dereferenceable(73) %7, i64 noundef %8, ptr noundef %1)
  %10 = getelementptr inbounds i8, ptr %7, i64 64
  %11 = load ptr, ptr %10, align 8
  br label %.thread

12:                                               ; preds = %.thread
  %13 = landingpad { ptr, i32 }
          cleanup
  %.not.i = icmp eq ptr %.sroa.0.1, null
  br i1 %.not.i, label %_ZNSt10unique_ptrIA_fSt14default_deleteIS0_EED2Ev.exit, label %_ZNKSt14default_deleteIA_fEclIfEENSt9enable_ifIXsr14is_convertibleIPA_T_PS0_EE5valueEvE4typeEPS4_.exit.i

_ZNKSt14default_deleteIA_fEclIfEENSt9enable_ifIXsr14is_convertibleIPA_T_PS0_EE5valueEvE4typeEPS4_.exit.i: ; preds = %12
  tail call void @_ZdaPv(ptr noundef nonnull %.sroa.0.1) #23
  br label %_ZNSt10unique_ptrIA_fSt14default_deleteIS0_EED2Ev.exit

_ZNSt10unique_ptrIA_fSt14default_deleteIS0_EED2Ev.exit: ; preds = %12, %_ZNKSt14default_deleteIA_fEclIfEENSt9enable_ifIXsr14is_convertibleIPA_T_PS0_EE5valueEvE4typeEPS4_.exit.i
  resume { ptr, i32 } %13

.thread:                                          ; preds = %4, %_ZNSt10unique_ptrIA_fSt14default_deleteIS0_EE5resetIPfvEEvT_.exit, %6
  %.sroa.0.1 = phi ptr [ null, %6 ], [ %9, %_ZNSt10unique_ptrIA_fSt14default_deleteIS0_EE5resetIPfvEEvT_.exit ], [ null, %4 ]
  %.013 = phi ptr [ %1, %6 ], [ %9, %_ZNSt10unique_ptrIA_fSt14default_deleteIS0_EE5resetIPfvEEvT_.exit ], [ %1, %4 ]
  %.0 = phi ptr [ %0, %6 ], [ %11, %_ZNSt10unique_ptrIA_fSt14default_deleteIS0_EE5resetIPfvEEvT_.exit ], [ null, %4 ]
  %14 = icmp ne ptr %.0, null
  tail call void @llvm.assume(i1 %14)
  %15 = tail call ptr @__dynamic_cast(ptr nonnull %.0, ptr nonnull @_ZTIN5faiss5IndexE, ptr nonnull @_ZTIN5faiss8IndexIVFE, i64 0) #16
  %16 = getelementptr inbounds i8, ptr %15, i64 48
  %17 = load ptr, ptr %16, align 8
  %18 = sext i32 %2 to i64
  %19 = load ptr, ptr %17, align 8
  %20 = getelementptr inbounds i8, ptr %19, i64 56
  %21 = load ptr, ptr %20, align 8
  invoke void %21(ptr noundef nonnull align 8 dereferenceable(36) %17, i64 noundef %18, ptr noundef %.013, ptr noundef %3, i64 noundef 1)
          to label %22 unwind label %12

22:                                               ; preds = %.thread
  %.not.i16 = icmp eq ptr %.sroa.0.1, null
  br i1 %.not.i16, label %_ZNSt10unique_ptrIA_fSt14default_deleteIS0_EED2Ev.exit18, label %_ZNKSt14default_deleteIA_fEclIfEENSt9enable_ifIXsr14is_convertibleIPA_T_PS0_EE5valueEvE4typeEPS4_.exit.i17

_ZNKSt14default_deleteIA_fEclIfEENSt9enable_ifIXsr14is_convertibleIPA_T_PS0_EE5valueEvE4typeEPS4_.exit.i17: ; preds = %22
  tail call void @_ZdaPv(ptr noundef nonnull %.sroa.0.1) #23
  br label %_ZNSt10unique_ptrIA_fSt14default_deleteIS0_EED2Ev.exit18

_ZNSt10unique_ptrIA_fSt14default_deleteIS0_EED2Ev.exit18: ; preds = %22, %_ZNKSt14default_deleteIA_fEclIfEENSt9enable_ifIXsr14is_convertibleIPA_T_PS0_EE5valueEvE4typeEPS4_.exit.i17
  ret void
}